; Function Attrs: nounwind uwtable
define i32 @curl_easy_recv(ptr noundef %0, ptr noundef %1, i64 noundef %2, ptr noundef writeonly captures(none) %3) local_unnamed_addr #5 {
  %5 = alloca i64, align 8
  %6 = alloca ptr, align 8
  call void @llvm.lifetime.start.p0(i64 8, ptr nonnull %5) #11
  call void @llvm.lifetime.start.p0(i64 8, ptr nonnull %6) #11
  %7 = tail call zeroext i1 @Curl_is_in_callback(ptr noundef %0) #11
  br i1 %7, label %easy_connection.exit.thread, label %8

8:                                                ; preds = %4
  %.not.i = icmp eq ptr %0, null
  br i1 %.not.i, label %easy_connection.exit.thread, label %9

9:                                                ; preds = %8
  %10 = getelementptr inbounds nuw i8, ptr %0, i64 2658
  %11 = load i64, ptr %10, align 2
  %12 = and i64 %11, 1
  %.not8.i = icmp eq i64 %12, 0
  br i1 %.not8.i, label %.sink.split.i, label %13

13:                                               ; preds = %9
  %14 = call i32 @Curl_getconnectinfo(ptr noundef nonnull %0, ptr noundef nonnull %6) #11
  %15 = icmp eq i32 %14, -1
  br i1 %15, label %.sink.split.i, label %easy_connection.exit

.sink.split.i:                                    ; preds = %13, %9
  %.str.2.sink.i = phi ptr [ @.str.1, %9 ], [ @.str.2, %13 ]
  call void (ptr, ptr, ...) @Curl_failf(ptr noundef nonnull %0, ptr noundef nonnull %.str.2.sink.i) #11
  br label %easy_connection.exit.thread

easy_connection.exit:                             ; preds = %13
  %16 = getelementptr inbounds nuw i8, ptr %0, i64 24
  %17 = load ptr, ptr %16, align 8, !tbaa !82
  %.not16 = icmp eq ptr %17, null
  br i1 %.not16, label %18, label %20

18:                                               ; preds = %easy_connection.exit
  %19 = load ptr, ptr %6, align 8, !tbaa !131
  call void @Curl_attach_connection(ptr noundef nonnull %0, ptr noundef %19) #11
  br label %20

20:                                               ; preds = %18, %easy_connection.exit
  store i64 0, ptr %3, align 8, !tbaa !101
  %21 = call i32 @Curl_conn_recv(ptr noundef nonnull %0, i32 noundef 0, ptr noundef %1, i64 noundef %2, ptr noundef nonnull %5) #11
  %.not17 = icmp eq i32 %21, 0
  br i1 %.not17, label %22, label %easy_connection.exit.thread

22:                                               ; preds = %20
  %23 = load i64, ptr %5, align 8, !tbaa !101
  store i64 %23, ptr %3, align 8, !tbaa !101
  br label %easy_connection.exit.thread

easy_connection.exit.thread:                      ; preds = %.sink.split.i, %8, %20, %4, %22
  %.0 = phi i32 [ 0, %22 ], [ 93, %4 ], [ %21, %20 ], [ 1, %.sink.split.i ], [ 43, %8 ]
  call void @llvm.lifetime.end.p0(i64 8, ptr nonnull %6) #11
  call void @llvm.lifetime.end.p0(i64 8, ptr nonnull %5) #11
  ret i32 %.0
}